; Function Attrs: mustprogress uwtable
define void @_ZN6google8protobuf8compiler26CodeGeneratorResponse_File8CopyFromERKS2_(ptr noundef nonnull align 8 dereferenceable(56) %this, ptr noundef nonnull readonly align 8 dereferenceable(56) %from) local_unnamed_addr #3 align 2 {
entry:
  %cmp = icmp eq ptr %from, %this
  br i1 %cmp, label %return, label %if.end

if.end:                                           ; preds = %entry
  tail call void @_ZN6google8protobuf8compiler26CodeGeneratorResponse_File5ClearEv(ptr noundef nonnull align 8 dereferenceable(56) %this)
  tail call void @_ZN6google8protobuf8compiler26CodeGeneratorResponse_File9MergeImplERNS0_11MessageLiteERKS3_(ptr noundef nonnull align 8 dereferenceable(16) %this, ptr noundef nonnull align 8 dereferenceable(16) %from)
  br label %return

return:                                           ; preds = %entry, %if.end
  ret void
}